target datalayout = "e-m:e-p270:32:32-p271:32:32-p272:64:64-i64:64-i128:128-f80:128-n8:16:32:64-S128"
target triple = "x86_64-pc-linux-gnu"

%struct.pmix_device_distance = type { ptr, ptr, i64, i16, i16 }

; Function Attrs: nounwind uwtable
define i32 @pmix_bfrops_base_copy_devdist(ptr noundef %0, ptr noundef %1, i16 noundef zeroext %2) #0 {
  %4 = alloca i32, align 4
  %5 = alloca ptr, align 8
  %6 = alloca ptr, align 8
  %7 = alloca i16, align 2
  %8 = alloca ptr, align 8
  %9 = alloca i32, align 4
  store ptr %0, ptr %5, align 8, !tbaa !220
  store ptr %1, ptr %6, align 8, !tbaa !181
  store i16 %2, ptr %7, align 2, !tbaa !9
  call void @llvm.lifetime.start.p0(i64 8, ptr %8) #11
  %10 = call ptr @PMIx_Device_distance_create(i64 noundef 1)
  store ptr %10, ptr %8, align 8, !tbaa !181
  %11 = load ptr, ptr %8, align 8, !tbaa !181
  %12 = icmp eq ptr null, %11
  br i1 %12, label %13, label %14

13:                                               ; preds = %3
  store i32 -32, ptr %4, align 4
  store i32 1, ptr %9, align 4
  br label %56

14:                                               ; preds = %3
  %15 = load ptr, ptr %6, align 8, !tbaa !181
  %16 = getelementptr inbounds nuw %struct.pmix_device_distance, ptr %15, i32 0, i32 0
  %17 = load ptr, ptr %16, align 8, !tbaa !183
  %18 = icmp ne ptr null, %17
  br i1 %18, label %19, label %26

19:                                               ; preds = %14
  %20 = load ptr, ptr %6, align 8, !tbaa !181
  %21 = getelementptr inbounds nuw %struct.pmix_device_distance, ptr %20, i32 0, i32 0
  %22 = load ptr, ptr %21, align 8, !tbaa !183
  %23 = call noalias ptr @strdup(ptr noundef %22) #11
  %24 = load ptr, ptr %8, align 8, !tbaa !181
  %25 = getelementptr inbounds nuw %struct.pmix_device_distance, ptr %24, i32 0, i32 0
  store ptr %23, ptr %25, align 8, !tbaa !183
  br label %26

26:                                               ; preds = %19, %14
  %27 = load ptr, ptr %6, align 8, !tbaa !181
  %28 = getelementptr inbounds nuw %struct.pmix_device_distance, ptr %27, i32 0, i32 1
  %29 = load ptr, ptr %28, align 8, !tbaa !185
  %30 = icmp ne ptr null, %29
  br i1 %30, label %31, label %38

31:                                               ; preds = %26
  %32 = load ptr, ptr %6, align 8, !tbaa !181
  %33 = getelementptr inbounds nuw %struct.pmix_device_distance, ptr %32, i32 0, i32 1
  %34 = load ptr, ptr %33, align 8, !tbaa !185
  %35 = call noalias ptr @strdup(ptr noundef %34) #11
  %36 = load ptr, ptr %8, align 8, !tbaa !181
  %37 = getelementptr inbounds nuw %struct.pmix_device_distance, ptr %36, i32 0, i32 1
  store ptr %35, ptr %37, align 8, !tbaa !185
  br label %38

38:                                               ; preds = %31, %26
  %39 = load ptr, ptr %6, align 8, !tbaa !181
  %40 = getelementptr inbounds nuw %struct.pmix_device_distance, ptr %39, i32 0, i32 2
  %41 = load i64, ptr %40, align 8, !tbaa !186
  %42 = load ptr, ptr %8, align 8, !tbaa !181
  %43 = getelementptr inbounds nuw %struct.pmix_device_distance, ptr %42, i32 0, i32 2
  store i64 %41, ptr %43, align 8, !tbaa !186
  %44 = load ptr, ptr %6, align 8, !tbaa !181
  %45 = getelementptr inbounds nuw %struct.pmix_device_distance, ptr %44, i32 0, i32 3
  %46 = load i16, ptr %45, align 8, !tbaa !187
  %47 = load ptr, ptr %8, align 8, !tbaa !181
  %48 = getelementptr inbounds nuw %struct.pmix_device_distance, ptr %47, i32 0, i32 3
  store i16 %46, ptr %48, align 8, !tbaa !187
  %49 = load ptr, ptr %6, align 8, !tbaa !181
  %50 = getelementptr inbounds nuw %struct.pmix_device_distance, ptr %49, i32 0, i32 4
  %51 = load i16, ptr %50, align 2, !tbaa !188
  %52 = load ptr, ptr %8, align 8, !tbaa !181
  %53 = getelementptr inbounds nuw %struct.pmix_device_distance, ptr %52, i32 0, i32 4
  store i16 %51, ptr %53, align 2, !tbaa !188
  %54 = load ptr, ptr %8, align 8, !tbaa !181
  %55 = load ptr, ptr %5, align 8, !tbaa !220
  store ptr %54, ptr %55, align 8, !tbaa !181
  store i32 0, ptr %4, align 4
  store i32 1, ptr %9, align 4
  br label %56

56:                                               ; preds = %38, %13
  call void @llvm.lifetime.end.p0(i64 8, ptr %8) #11
  %57 = load i32, ptr %4, align 4
  ret i32 %57
}